target datalayout = "e-m:e-p270:32:32-p271:32:32-p272:64:64-i64:64-i128:128-f80:128-n8:16:32:64-S128"
target triple = "x86_64-pc-linux-gnu"

%struct.eio_obj = type { i32, ptr, ptr, i8 }
%struct.server_io_info = type { ptr, i32, i8, %struct.io_hdr_t, ptr, i32, i8, i32, i32, ptr, ptr, i32, i8 }
%struct.io_hdr_t = type { i32, i16, i16, i32 }
%struct.client_io_t = type { i32, i32, i8, i32, i32, i32, ptr, i8, %union.pthread_cond_t, %union.pthread_mutex_t, i32, ptr, ptr, ptr, %union.pthread_mutex_t, ptr, i32, ptr, ptr, ptr, ptr, ptr, ptr, i32, i32, ptr }
%union.pthread_cond_t = type { %struct.__pthread_cond_s }
%struct.__pthread_cond_s = type { %union.__atomic_wide_counter, %union.__atomic_wide_counter, [2 x i32], [2 x i32], i32, i32, [2 x i32] }
%union.__atomic_wide_counter = type { i64 }
%union.pthread_mutex_t = type { %struct.__pthread_mutex_s }
%struct.__pthread_mutex_s = type { i32, i32, i32, i32, i32, i16, i16, %struct.__pthread_internal_list }
%struct.__pthread_internal_list = type { ptr, ptr }
%struct.io_buf = type { i32, i32, ptr, %struct.io_hdr_t }
%struct.buf_t = type { i32, ptr, i32, i32, i8, i8 }

@.str = private unnamed_addr constant [10 x i8] c"step_io.c\00", align 1
@.str.4 = private unnamed_addr constant [29 x i8] c"%s: pthread_mutex_lock(): %m\00", align 1
@.str.11 = private unnamed_addr constant [31 x i8] c"%s: pthread_mutex_unlock(): %m\00", align 1
@__func__.client_io_handler_send_test_message = private unnamed_addr constant [36 x i8] c"client_io_handler_send_test_message\00", align 1
@__func__._alloc_io_buf = private unnamed_addr constant [14 x i8] c"_alloc_io_buf\00", align 1

; Function Attrs: nounwind uwtable
define internal ptr @_alloc_io_buf() #0 {
  %1 = alloca ptr, align 8
  call void @llvm.lifetime.start.p0(i64 8, ptr %1) #9
  %2 = call ptr @slurm_xcalloc(i64 noundef 1, i64 noundef 32, i1 noundef zeroext true, i1 noundef zeroext false, ptr noundef @.str, i32 noundef 967, ptr noundef @__func__._alloc_io_buf)
  store ptr %2, ptr %1, align 8
  %3 = load ptr, ptr %1, align 8
  %4 = getelementptr inbounds nuw %struct.io_buf, ptr %3, i32 0, i32 0
  store i32 0, ptr %4, align 8
  %5 = load ptr, ptr %1, align 8
  %6 = getelementptr inbounds nuw %struct.io_buf, ptr %5, i32 0, i32 1
  store i32 0, ptr %6, align 4
  %7 = call ptr @slurm_xcalloc(i64 noundef 1, i64 noundef 1035, i1 noundef zeroext true, i1 noundef zeroext false, ptr noundef @.str, i32 noundef 973, ptr noundef @__func__._alloc_io_buf)
  %8 = load ptr, ptr %1, align 8
  %9 = getelementptr inbounds nuw %struct.io_buf, ptr %8, i32 0, i32 2
  store ptr %7, ptr %9, align 8
  %10 = load ptr, ptr %1, align 8
  call void @llvm.lifetime.end.p0(i64 8, ptr %1) #9
  ret ptr %10
}

; Function Attrs: nounwind uwtable
define internal zeroext i1 @_incoming_buf_free(ptr noundef %0) #0 {
  %2 = alloca i1, align 1
  %3 = alloca ptr, align 8
  %4 = alloca ptr, align 8
  %5 = alloca i32, align 4
  store ptr %0, ptr %3, align 8
  call void @llvm.lifetime.start.p0(i64 8, ptr %4) #9
  %6 = load ptr, ptr %3, align 8
  %7 = getelementptr inbounds nuw %struct.client_io_t, ptr %6, i32 0, i32 21
  %8 = load ptr, ptr %7, align 8
  %9 = call i32 @list_count(ptr noundef %8)
  %10 = icmp sgt i32 %9, 0
  br i1 %10, label %11, label %12

11:                                               ; preds = %1
  store i1 true, ptr %2, align 1
  store i32 1, ptr %5, align 4
  br label %29

12:                                               ; preds = %1
  %13 = load ptr, ptr %3, align 8
  %14 = getelementptr inbounds nuw %struct.client_io_t, ptr %13, i32 0, i32 23
  %15 = load i32, ptr %14, align 8
  %16 = icmp slt i32 %15, 1024
  br i1 %16, label %17, label %27

17:                                               ; preds = %12
  %18 = call ptr @_alloc_io_buf()
  store ptr %18, ptr %4, align 8
  %19 = load ptr, ptr %3, align 8
  %20 = getelementptr inbounds nuw %struct.client_io_t, ptr %19, i32 0, i32 21
  %21 = load ptr, ptr %20, align 8
  %22 = load ptr, ptr %4, align 8
  call void @list_enqueue(ptr noundef %21, ptr noundef %22)
  %23 = load ptr, ptr %3, align 8
  %24 = getelementptr inbounds nuw %struct.client_io_t, ptr %23, i32 0, i32 23
  %25 = load i32, ptr %24, align 8
  %26 = add nsw i32 %25, 1
  store i32 %26, ptr %24, align 8
  store i1 true, ptr %2, align 1
  store i32 1, ptr %5, align 4
  br label %29

27:                                               ; preds = %12
  br label %28

28:                                               ; preds = %27
  store i1 false, ptr %2, align 1
  store i32 1, ptr %5, align 4
  br label %29

29:                                               ; preds = %28, %17, %11
  call void @llvm.lifetime.end.p0(i64 8, ptr %4) #9
  %30 = load i1, ptr %2, align 1
  ret i1 %30
}

; Function Attrs: nounwind uwtable
define dso_local i32 @client_io_handler_send_test_message(ptr noundef %0, i32 noundef %1, ptr noundef %2) #0 {
  %4 = alloca ptr, align 8
  %5 = alloca i32, align 4
  %6 = alloca ptr, align 8
  %7 = alloca ptr, align 8
  %8 = alloca %struct.io_hdr_t, align 4
  %9 = alloca ptr, align 8
  %10 = alloca ptr, align 8
  %11 = alloca i32, align 4
  %12 = alloca i32, align 4
  %13 = alloca i32, align 4
  store ptr %0, ptr %4, align 8
  store i32 %1, ptr %5, align 4
  store ptr %2, ptr %6, align 8
  call void @llvm.lifetime.start.p0(i64 8, ptr %7) #9
  call void @llvm.lifetime.start.p0(i64 12, ptr %8) #9
  call void @llvm.lifetime.start.p0(i64 8, ptr %9) #9
  call void @llvm.lifetime.start.p0(i64 8, ptr %10) #9
  call void @llvm.lifetime.start.p0(i64 4, ptr %11) #9
  store i32 0, ptr %11, align 4
  br label %14

14:                                               ; preds = %3
  call void @llvm.lifetime.start.p0(i64 4, ptr %12) #9
  %15 = load ptr, ptr %4, align 8
  %16 = getelementptr inbounds nuw %struct.client_io_t, ptr %15, i32 0, i32 14
  %17 = call i32 @pthread_mutex_lock(ptr noundef %16) #9
  store i32 %17, ptr %12, align 4
  %18 = load i32, ptr %12, align 4
  %19 = icmp ne i32 %18, 0
  br i1 %19, label %20, label %23

20:                                               ; preds = %14
  %21 = load i32, ptr %12, align 4
  %22 = call ptr @__errno_location() #10
  store i32 %21, ptr %22, align 4
  call void (ptr, ...) @fatal_abort(ptr noundef @.str.4, ptr noundef @__func__.client_io_handler_send_test_message) #11
  unreachable

23:                                               ; preds = %14
  call void @llvm.lifetime.end.p0(i64 4, ptr %12) #9
  br label %24

24:                                               ; preds = %23
  br label %25

25:                                               ; preds = %24
  %26 = load ptr, ptr %6, align 8
  %27 = icmp ne ptr %26, null
  br i1 %27, label %28, label %30

28:                                               ; preds = %25
  %29 = load ptr, ptr %6, align 8
  store i8 0, ptr %29, align 1
  br label %30

30:                                               ; preds = %28, %25
  %31 = load ptr, ptr %4, align 8
  %32 = getelementptr inbounds nuw %struct.client_io_t, ptr %31, i32 0, i32 17
  %33 = load ptr, ptr %32, align 8
  %34 = load i32, ptr %5, align 4
  %35 = sext i32 %34 to i64
  %36 = getelementptr inbounds ptr, ptr %33, i64 %35
  %37 = load ptr, ptr %36, align 8
  %38 = icmp eq ptr %37, null
  br i1 %38, label %39, label %40

39:                                               ; preds = %30
  br label %108

40:                                               ; preds = %30
  %41 = load ptr, ptr %4, align 8
  %42 = getelementptr inbounds nuw %struct.client_io_t, ptr %41, i32 0, i32 17
  %43 = load ptr, ptr %42, align 8
  %44 = load i32, ptr %5, align 4
  %45 = sext i32 %44 to i64
  %46 = getelementptr inbounds ptr, ptr %43, i64 %45
  %47 = load ptr, ptr %46, align 8
  %48 = getelementptr inbounds nuw %struct.eio_obj, ptr %47, i32 0, i32 1
  %49 = load ptr, ptr %48, align 8
  store ptr %49, ptr %10, align 8
  %50 = load ptr, ptr %10, align 8
  %51 = getelementptr inbounds nuw %struct.server_io_info, ptr %50, i32 0, i32 12
  %52 = load i8, ptr %51, align 4, !range !8, !noundef !9
  %53 = trunc i8 %52 to i1
  br i1 %53, label %54, label %55

54:                                               ; preds = %40
  br label %108

55:                                               ; preds = %40
  call void @llvm.memset.p0.i64(ptr align 4 %8, i8 0, i64 12, i1 false)
  %56 = getelementptr inbounds nuw %struct.io_hdr_t, ptr %8, i32 0, i32 0
  store i32 4, ptr %56, align 4
  %57 = getelementptr inbounds nuw %struct.io_hdr_t, ptr %8, i32 0, i32 1
  store i16 0, ptr %57, align 4
  %58 = getelementptr inbounds nuw %struct.io_hdr_t, ptr %8, i32 0, i32 2
  store i16 0, ptr %58, align 2
  %59 = getelementptr inbounds nuw %struct.io_hdr_t, ptr %8, i32 0, i32 3
  store i32 0, ptr %59, align 4
  %60 = load ptr, ptr %4, align 8
  %61 = call zeroext i1 @_incoming_buf_free(ptr noundef %60)
  br i1 %61, label %62, label %106

62:                                               ; preds = %55
  %63 = load ptr, ptr %4, align 8
  %64 = getelementptr inbounds nuw %struct.client_io_t, ptr %63, i32 0, i32 21
  %65 = load ptr, ptr %64, align 8
  %66 = call ptr @list_dequeue(ptr noundef %65)
  store ptr %66, ptr %7, align 8
  %67 = load ptr, ptr %7, align 8
  %68 = getelementptr inbounds nuw %struct.io_buf, ptr %67, i32 0, i32 1
  store i32 10, ptr %68, align 4
  %69 = load ptr, ptr %7, align 8
  %70 = getelementptr inbounds nuw %struct.io_buf, ptr %69, i32 0, i32 0
  store i32 1, ptr %70, align 8
  %71 = load ptr, ptr %7, align 8
  %72 = getelementptr inbounds nuw %struct.io_buf, ptr %71, i32 0, i32 3
  call void @llvm.memcpy.p0.p0.i64(ptr align 8 %72, ptr align 4 %8, i64 12, i1 false)
  %73 = load ptr, ptr %7, align 8
  %74 = getelementptr inbounds nuw %struct.io_buf, ptr %73, i32 0, i32 2
  %75 = load ptr, ptr %74, align 8
  %76 = call ptr @create_buf(ptr noundef %75, i32 noundef 10)
  store ptr %76, ptr %9, align 8
  %77 = load ptr, ptr %9, align 8
  call void @io_hdr_pack(ptr noundef %8, ptr noundef %77)
  %78 = load ptr, ptr %9, align 8
  %79 = getelementptr inbounds nuw %struct.buf_t, ptr %78, i32 0, i32 1
  store ptr null, ptr %79, align 8
  br label %80

80:                                               ; preds = %62
  %81 = load ptr, ptr %9, align 8
  %82 = icmp ne ptr %81, null
  br i1 %82, label %83, label %85

83:                                               ; preds = %80
  %84 = load ptr, ptr %9, align 8
  call void @free_buf(ptr noundef %84)
  br label %85

85:                                               ; preds = %83, %80
  store ptr null, ptr %9, align 8
  br label %86

86:                                               ; preds = %85
  br label %87

87:                                               ; preds = %86
  %88 = load ptr, ptr %10, align 8
  %89 = getelementptr inbounds nuw %struct.server_io_info, ptr %88, i32 0, i32 9
  %90 = load ptr, ptr %89, align 8
  %91 = load ptr, ptr %7, align 8
  call void @list_enqueue(ptr noundef %90, ptr noundef %91)
  %92 = load ptr, ptr %4, align 8
  %93 = getelementptr inbounds nuw %struct.client_io_t, ptr %92, i32 0, i32 13
  %94 = load ptr, ptr %93, align 8
  %95 = call i32 @eio_signal_wakeup(ptr noundef %94)
  %96 = icmp ne i32 %95, 0
  br i1 %96, label %97, label %98

97:                                               ; preds = %87
  store i32 -1, ptr %11, align 4
  br label %108

98:                                               ; preds = %87
  %99 = load ptr, ptr %10, align 8
  %100 = getelementptr inbounds nuw %struct.server_io_info, ptr %99, i32 0, i32 2
  store i8 1, ptr %100, align 4
  %101 = load ptr, ptr %6, align 8
  %102 = icmp ne ptr %101, null
  br i1 %102, label %103, label %105

103:                                              ; preds = %98
  %104 = load ptr, ptr %6, align 8
  store i8 1, ptr %104, align 1
  br label %105

105:                                              ; preds = %103, %98
  br label %107

106:                                              ; preds = %55
  store i32 -1, ptr %11, align 4
  br label %108

107:                                              ; preds = %105
  br label %108

108:                                              ; preds = %107, %106, %97, %54, %39
  br label %109

109:                                              ; preds = %108
  call void @llvm.lifetime.start.p0(i64 4, ptr %13) #9
  %110 = load ptr, ptr %4, align 8
  %111 = getelementptr inbounds nuw %struct.client_io_t, ptr %110, i32 0, i32 14
  %112 = call i32 @pthread_mutex_unlock(ptr noundef %111) #9
  store i32 %112, ptr %13, align 4
  %113 = load i32, ptr %13, align 4
  %114 = icmp ne i32 %113, 0
  br i1 %114, label %115, label %118

115:                                              ; preds = %109
  %116 = load i32, ptr %13, align 4
  %117 = call ptr @__errno_location() #10
  store i32 %116, ptr %117, align 4
  call void (ptr, ...) @fatal_abort(ptr noundef @.str.11, ptr noundef @__func__.client_io_handler_send_test_message) #11
  unreachable

118:                                              ; preds = %109
  call void @llvm.lifetime.end.p0(i64 4, ptr %13) #9
  br label %119

119:                                              ; preds = %118
  br label %120

120:                                              ; preds = %119
  %121 = load i32, ptr %11, align 4
  call void @llvm.lifetime.end.p0(i64 4, ptr %11) #9
  call void @llvm.lifetime.end.p0(i64 8, ptr %10) #9
  call void @llvm.lifetime.end.p0(i64 8, ptr %9) #9
  call void @llvm.lifetime.end.p0(i64 12, ptr %8) #9
  call void @llvm.lifetime.end.p0(i64 8, ptr %7) #9
  ret i32 %121
}