; Function Attrs: nounwind uwtable
define dso_local range(i32 -1, 1) i32 @client_io_handler_send_test_message(ptr noundef %0, i32 noundef %1, ptr noundef writeonly captures(address_is_null) %2) local_unnamed_addr #0 {
  %4 = alloca %struct.io_hdr_t, align 4
  call void @llvm.lifetime.start.p0(i64 12, ptr nonnull %4) #10
  %5 = getelementptr inbounds nuw i8, ptr %0, i64 160
  %6 = tail call i32 @pthread_mutex_lock(ptr noundef nonnull %5) #10
  %.not = icmp eq i32 %6, 0
  br i1 %.not, label %9, label %7

7:                                                ; preds = %3
  %8 = tail call ptr @__errno_location() #11
  store i32 %6, ptr %8, align 4
  tail call void (ptr, ...) @fatal_abort(ptr noundef nonnull @.str.4, ptr noundef nonnull @__func__.client_io_handler_send_test_message) #12
  unreachable

9:                                                ; preds = %3
  %.not34 = icmp eq ptr %2, null
  br i1 %.not34, label %11, label %10

10:                                               ; preds = %9
  store i8 0, ptr %2, align 1
  br label %11

11:                                               ; preds = %10, %9
  %12 = getelementptr inbounds nuw i8, ptr %0, i64 216
  %13 = load ptr, ptr %12, align 8
  %14 = sext i32 %1 to i64
  %15 = getelementptr inbounds ptr, ptr %13, i64 %14
  %16 = load ptr, ptr %15, align 8
  %17 = icmp eq ptr %16, null
  br i1 %17, label %_incoming_buf_free.exit, label %18

18:                                               ; preds = %11
  %19 = getelementptr inbounds nuw i8, ptr %16, i64 8
  %20 = load ptr, ptr %19, align 8
  %21 = getelementptr inbounds nuw i8, ptr %20, i64 76
  %22 = load i8, ptr %21, align 4, !range !8, !noundef !9
  %23 = trunc nuw i8 %22 to i1
  br i1 %23, label %_incoming_buf_free.exit, label %24

24:                                               ; preds = %18
  store i32 4, ptr %4, align 4
  %25 = getelementptr inbounds nuw i8, ptr %4, i64 4
  %26 = getelementptr inbounds nuw i8, ptr %0, i64 248
  store i64 0, ptr %25, align 4
  %27 = load ptr, ptr %26, align 8
  %28 = tail call i32 @list_count(ptr noundef %27) #10
  %29 = icmp sgt i32 %28, 0
  br i1 %29, label %42, label %30

30:                                               ; preds = %24
  %31 = getelementptr inbounds nuw i8, ptr %0, i64 264
  %32 = load i32, ptr %31, align 8
  %33 = icmp slt i32 %32, 1024
  br i1 %33, label %34, label %_incoming_buf_free.exit

34:                                               ; preds = %30
  %35 = tail call ptr @slurm_xcalloc(i64 noundef 1, i64 noundef 32, i1 noundef zeroext true, i1 noundef zeroext false, ptr noundef nonnull @.str, i32 noundef 967, ptr noundef nonnull @__func__._alloc_io_buf) #10
  store i32 0, ptr %35, align 8
  %36 = getelementptr inbounds nuw i8, ptr %35, i64 4
  store i32 0, ptr %36, align 4
  %37 = tail call ptr @slurm_xcalloc(i64 noundef 1, i64 noundef 1035, i1 noundef zeroext true, i1 noundef zeroext false, ptr noundef nonnull @.str, i32 noundef 973, ptr noundef nonnull @__func__._alloc_io_buf) #10
  %38 = getelementptr inbounds nuw i8, ptr %35, i64 8
  store ptr %37, ptr %38, align 8
  %39 = load ptr, ptr %26, align 8
  tail call void @list_enqueue(ptr noundef %39, ptr noundef nonnull %35) #10
  %40 = load i32, ptr %31, align 8
  %41 = add nsw i32 %40, 1
  store i32 %41, ptr %31, align 8
  br label %42

42:                                               ; preds = %34, %24
  %43 = load ptr, ptr %26, align 8
  %44 = tail call ptr @list_dequeue(ptr noundef %43) #10
  %45 = getelementptr inbounds nuw i8, ptr %44, i64 4
  store i32 10, ptr %45, align 4
  store i32 1, ptr %44, align 8
  %46 = getelementptr inbounds nuw i8, ptr %44, i64 16
  call void @llvm.memcpy.p0.p0.i64(ptr noundef nonnull align 8 dereferenceable(12) %46, ptr noundef nonnull align 4 dereferenceable(12) %4, i64 12, i1 false)
  %47 = getelementptr inbounds nuw i8, ptr %44, i64 8
  %48 = load ptr, ptr %47, align 8
  %49 = tail call ptr @create_buf(ptr noundef %48, i32 noundef 10) #10
  call void @io_hdr_pack(ptr noundef nonnull %4, ptr noundef %49) #10
  %50 = getelementptr inbounds nuw i8, ptr %49, i64 8
  store ptr null, ptr %50, align 8
  call void @free_buf(ptr noundef nonnull %49) #10
  %51 = getelementptr inbounds nuw i8, ptr %20, i64 56
  %52 = load ptr, ptr %51, align 8
  call void @list_enqueue(ptr noundef %52, ptr noundef nonnull %44) #10
  %53 = getelementptr inbounds nuw i8, ptr %0, i64 152
  %54 = load ptr, ptr %53, align 8
  %55 = call i32 @eio_signal_wakeup(ptr noundef %54) #10
  %.not36 = icmp eq i32 %55, 0
  br i1 %.not36, label %56, label %_incoming_buf_free.exit

56:                                               ; preds = %42
  %57 = getelementptr inbounds nuw i8, ptr %20, i64 12
  store i8 1, ptr %57, align 4
  br i1 %.not34, label %_incoming_buf_free.exit, label %58

58:                                               ; preds = %56
  store i8 1, ptr %2, align 1
  br label %_incoming_buf_free.exit

_incoming_buf_free.exit:                          ; preds = %30, %42, %11, %18, %56, %58
  %.0 = phi i32 [ 0, %11 ], [ 0, %18 ], [ 0, %58 ], [ 0, %56 ], [ -1, %42 ], [ -1, %30 ]
  %59 = call i32 @pthread_mutex_unlock(ptr noundef nonnull %5) #10
  %.not37 = icmp eq i32 %59, 0
  br i1 %.not37, label %62, label %60

60:                                               ; preds = %_incoming_buf_free.exit
  %61 = tail call ptr @__errno_location() #11
  store i32 %59, ptr %61, align 4
  call void (ptr, ...) @fatal_abort(ptr noundef nonnull @.str.11, ptr noundef nonnull @__func__.client_io_handler_send_test_message) #12
  unreachable

62:                                               ; preds = %_incoming_buf_free.exit
  call void @llvm.lifetime.end.p0(i64 12, ptr nonnull %4) #10
  ret i32 %.0
}